target datalayout = "e-m:e-p270:32:32-p271:32:32-p272:64:64-i64:64-i128:128-f80:128-n8:16:32:64-S128"
target triple = "x86_64-pc-linux-gnu"

%struct.grep_source = type { ptr, i32, ptr, ptr, ptr, i64, ptr, ptr }

; Function Attrs: nounwind uwtable
define dso_local void @grep_source_clear_data(ptr noundef %0) #0 {
  %2 = alloca ptr, align 8
  store ptr %0, ptr %2, align 8, !tbaa !85
  %3 = load ptr, ptr %2, align 8, !tbaa !85
  %4 = getelementptr inbounds nuw %struct.grep_source, ptr %3, i32 0, i32 1
  %5 = load i32, ptr %4, align 8, !tbaa !134
  switch i32 %5, label %14 [
    i32 1, label %6
    i32 0, label %6
    i32 2, label %14
  ]

6:                                                ; preds = %1, %1
  %7 = load ptr, ptr %2, align 8, !tbaa !85
  %8 = getelementptr inbounds nuw %struct.grep_source, ptr %7, i32 0, i32 4
  %9 = load ptr, ptr %8, align 8, !tbaa !122
  call void @free(ptr noundef %9) #11
  %10 = load ptr, ptr %2, align 8, !tbaa !85
  %11 = getelementptr inbounds nuw %struct.grep_source, ptr %10, i32 0, i32 4
  store ptr null, ptr %11, align 8, !tbaa !122
  %12 = load ptr, ptr %2, align 8, !tbaa !85
  %13 = getelementptr inbounds nuw %struct.grep_source, ptr %12, i32 0, i32 5
  store i64 0, ptr %13, align 8, !tbaa !123
  br label %14

14:                                               ; preds = %1, %1, %6
  ret void
}

; Function Attrs: nounwind uwtable
define dso_local void @grep_source_clear(ptr noundef %0) #0 {
  %2 = alloca ptr, align 8
  store ptr %0, ptr %2, align 8, !tbaa !85
  br label %3

3:                                                ; preds = %1
  %4 = load ptr, ptr %2, align 8, !tbaa !85
  %5 = getelementptr inbounds nuw %struct.grep_source, ptr %4, i32 0, i32 0
  %6 = load ptr, ptr %5, align 8, !tbaa !91
  call void @free(ptr noundef %6) #11
  %7 = load ptr, ptr %2, align 8, !tbaa !85
  %8 = getelementptr inbounds nuw %struct.grep_source, ptr %7, i32 0, i32 0
  store ptr null, ptr %8, align 8, !tbaa !91
  br label %9

9:                                                ; preds = %3
  br label %10

10:                                               ; preds = %9
  %11 = load ptr, ptr %2, align 8, !tbaa !85
  %12 = getelementptr inbounds nuw %struct.grep_source, ptr %11, i32 0, i32 6
  %13 = load ptr, ptr %12, align 8, !tbaa !135
  call void @free(ptr noundef %13) #11
  %14 = load ptr, ptr %2, align 8, !tbaa !85
  %15 = getelementptr inbounds nuw %struct.grep_source, ptr %14, i32 0, i32 6
  store ptr null, ptr %15, align 8, !tbaa !135
  br label %16

16:                                               ; preds = %10
  br label %17

17:                                               ; preds = %16
  %18 = load ptr, ptr %2, align 8, !tbaa !85
  %19 = getelementptr inbounds nuw %struct.grep_source, ptr %18, i32 0, i32 2
  %20 = load ptr, ptr %19, align 8, !tbaa !136
  call void @free(ptr noundef %20) #11
  %21 = load ptr, ptr %2, align 8, !tbaa !85
  %22 = getelementptr inbounds nuw %struct.grep_source, ptr %21, i32 0, i32 2
  store ptr null, ptr %22, align 8, !tbaa !136
  br label %23

23:                                               ; preds = %17
  %24 = load ptr, ptr %2, align 8, !tbaa !85
  call void @grep_source_clear_data(ptr noundef %24)
  ret void
}