; Function Attrs: mustprogress nounwind willreturn uwtable
define dso_local void @grep_source_clear(ptr noundef captures(none) %0) local_unnamed_addr #8 {
  %2 = load ptr, ptr %0, align 8, !tbaa !77
  tail call void @free(ptr noundef %2) #18
  store ptr null, ptr %0, align 8, !tbaa !77
  %3 = getelementptr inbounds nuw i8, ptr %0, i64 48
  %4 = load ptr, ptr %3, align 8, !tbaa !107
  tail call void @free(ptr noundef %4) #18
  store ptr null, ptr %3, align 8, !tbaa !107
  %5 = getelementptr inbounds nuw i8, ptr %0, i64 16
  %6 = load ptr, ptr %5, align 8, !tbaa !118
  tail call void @free(ptr noundef %6) #18
  store ptr null, ptr %5, align 8, !tbaa !118
  %7 = getelementptr inbounds nuw i8, ptr %0, i64 8
  %8 = load i32, ptr %7, align 8, !tbaa !117
  %switch.i = icmp ult i32 %8, 2
  br i1 %switch.i, label %9, label %grep_source_clear_data.exit

9:                                                ; preds = %1
  %10 = getelementptr inbounds nuw i8, ptr %0, i64 32
  %11 = load ptr, ptr %10, align 8, !tbaa !119
  tail call void @free(ptr noundef %11) #18
  tail call void @llvm.memset.p0.i64(ptr noundef nonnull align 8 dereferenceable(16) %10, i8 0, i64 16, i1 false)
  br label %grep_source_clear_data.exit

grep_source_clear_data.exit:                      ; preds = %1, %9
  ret void
}